Archive member included because of file (symbol)

c:/program files (x86)/gnu tools arm embedded/4.9 2014q4/bin/../lib/gcc/arm-none-eabi/4.9.3/../../../../arm-none-eabi/lib/armv6-m\libc.a(lib_a-memcpy.o)
                              bin/obj/usb_cdc.o (memcpy)
c:/program files (x86)/gnu tools arm embedded/4.9 2014q4/bin/../lib/gcc/arm-none-eabi/4.9.3/../../../../arm-none-eabi/lib/armv6-m\libc.a(lib_a-memset.o)
                              bin/obj/usbd.o (memset)
c:/program files (x86)/gnu tools arm embedded/4.9 2014q4/bin/../lib/gcc/arm-none-eabi/4.9.3/../../../../arm-none-eabi/lib/armv6-m\libc.a(lib_a-strlen.o)
                              bin/obj/usbd.o (strlen)

Allocating common symbols
Common symbol       size              file

g_vCOM              0x14              bin/obj/main.o
SystemCoreClock     0x4               bin/obj/lpc11u68_clock.o
g_hUsb              0x4               bin/obj/usbd.o
g_pUsbApi           0x4               bin/obj/main.o

Discarded input sections

 .text          0x00000000        0x0 bin/obj/startup_lpc11u6x.o
 .data          0x00000000        0x0 bin/obj/startup_lpc11u6x.o
 .bss           0x00000000        0x0 bin/obj/startup_lpc11u6x.o
 .rodata.pinmuxing
                0x00000000       0x64 bin/obj/startup_lpc11u6x.o
 .text          0x00000000        0x0 bin/obj/lpc11u68_clock.o
 .data          0x00000000        0x0 bin/obj/lpc11u68_clock.o
 .bss           0x00000000        0x0 bin/obj/lpc11u68_clock.o
 .text          0x00000000        0x0 bin/obj/gpio.o
 .data          0x00000000        0x0 bin/obj/gpio.o
 .bss           0x00000000        0x0 bin/obj/gpio.o
 .text.gpioSetDir
                0x00000000       0x24 bin/obj/gpio.o
 .text.gpioSetDirPin
                0x00000000       0x78 bin/obj/gpio.o
 .text.gpioGetDir
                0x00000000       0x24 bin/obj/gpio.o
 .text.gpioGetDirPin
                0x00000000       0x30 bin/obj/gpio.o
 .text.gpioSetPort
                0x00000000       0x24 bin/obj/gpio.o
 .text.gpioGetPort
                0x00000000       0x24 bin/obj/gpio.o
 .text.gpioGetPin
                0x00000000       0x30 bin/obj/gpio.o
 .text.gpioSetMask
                0x00000000       0x24 bin/obj/gpio.o
 .text.gpioGetMask
                0x00000000       0x24 bin/obj/gpio.o
 .text.gpioPinMask
                0x00000000       0x78 bin/obj/gpio.o
 .text.gpioPinSet
                0x00000000       0x2c bin/obj/gpio.o
 .text.gpioSet  0x00000000       0x24 bin/obj/gpio.o
 .text.gpioPinClr
                0x00000000       0x2c bin/obj/gpio.o
 .text.gpioClr  0x00000000       0x24 bin/obj/gpio.o
 .text.gpioPinToggle
                0x00000000       0x2c bin/obj/gpio.o
 .text.gpioToggle
                0x00000000       0x24 bin/obj/gpio.o
 .text          0x00000000        0x0 bin/obj/iocon.o
 .data          0x00000000        0x0 bin/obj/iocon.o
 .bss           0x00000000        0x0 bin/obj/iocon.o
 .rodata.pinmuxing
                0x00000000       0x64 bin/obj/iocon.o
 .text          0x00000000        0x0 bin/obj/delay.o
 .data          0x00000000        0x0 bin/obj/delay.o
 .bss           0x00000000        0x0 bin/obj/delay.o
 .text.delaySetClkSrc
                0x00000000       0x34 bin/obj/delay.o
 .text.delayEnableInt
                0x00000000       0x18 bin/obj/delay.o
 .text.delayDisableInt
                0x00000000       0x18 bin/obj/delay.o
 .text.delay    0x00000000       0x28 bin/obj/delay.o
 .text.delayGetTicks
                0x00000000       0x14 bin/obj/delay.o
 .text.delayCheckOverflow
                0x00000000       0x18 bin/obj/delay.o
 .text.delayGetRollovers
                0x00000000       0x18 bin/obj/delay.o
 .text.delayGetSecondsActive
                0x00000000        0xc bin/obj/delay.o
 .text          0x00000000        0x0 bin/obj/system.o
 .data          0x00000000        0x0 bin/obj/system.o
 .bss           0x00000000        0x0 bin/obj/system.o
 .data.SystemCoreClock2
                0x00000000        0x4 bin/obj/system.o
 .text.setupPLL
                0x00000000       0x44 bin/obj/system.o
 .text.enableSysOsc
                0x00000000       0x28 bin/obj/system.o
 .text.disableSysOsc
                0x00000000       0x24 bin/obj/system.o
 .text.enablePLL
                0x00000000       0x30 bin/obj/system.o
 .text.disablePLL
                0x00000000       0x24 bin/obj/system.o
 .text.setClockPLLVal
                0x00000000       0x40 bin/obj/system.o
 .text.setPLLSrc
                0x00000000       0x1c bin/obj/system.o
 .text.updatePLLClkSrc
                0x00000000       0x2c bin/obj/system.o
 .text.getClockPLL
                0x00000000        0xc bin/obj/system.o
 .text.getClockSource
                0x00000000       0x14 bin/obj/system.o
 .text.getClockSpeed
                0x00000000       0x14 bin/obj/system.o
 .text.setClockSource
                0x00000000       0x1c bin/obj/system.o
 .text.updateMainClkSrc
                0x00000000       0x2c bin/obj/system.o
 .debug_info    0x00000000      0x5f4 bin/obj/system.o
 .debug_abbrev  0x00000000      0x143 bin/obj/system.o
 .debug_aranges
                0x00000000       0x80 bin/obj/system.o
 .debug_ranges  0x00000000       0x70 bin/obj/system.o
 .debug_line    0x00000000      0x1e0 bin/obj/system.o
 .debug_str     0x00000000      0x4c2 bin/obj/system.o
 .comment       0x00000000       0x71 bin/obj/system.o
 .debug_frame   0x00000000      0x18c bin/obj/system.o
 .ARM.attributes
                0x00000000       0x32 bin/obj/system.o
 .text          0x00000000        0x0 bin/obj/usbd.o
 .data          0x00000000        0x0 bin/obj/usbd.o
 .bss           0x00000000        0x0 bin/obj/usbd.o
 .bss.isConfigured
                0x00000000        0x4 bin/obj/usbd.o
 .data.usb_RomDriver_buffer
                0x00000000        0x4 bin/obj/usbd.o
 .text.usb_isConfigured
                0x00000000       0x14 bin/obj/usbd.o
 .text.USB_Configure_Event
                0x00000000       0x34 bin/obj/usbd.o
 .text.USB_Reset_Event
                0x00000000       0x1c bin/obj/usbd.o
 .rodata        0x00000000       0x24 bin/obj/usbd.o
 .text.usb_init
                0x00000000      0x200 bin/obj/usbd.o
 .text          0x00000000        0x0 bin/obj/usb_cdc.o
 .data          0x00000000        0x0 bin/obj/usb_cdc.o
 .bss           0x00000000        0x0 bin/obj/usb_cdc.o
 .bss.g_hCdc    0x00000000        0x4 bin/obj/usb_cdc.o
 .bss.line_coding
                0x00000000        0x8 bin/obj/usb_cdc.o
 .bss.isConnected
                0x00000000        0x4 bin/obj/usb_cdc.o
 .text.usb_cdc_recv_isr_default
                0x00000000        0xc bin/obj/usb_cdc.o
 .text.usb_cdc_isConnected
                0x00000000       0x14 bin/obj/usb_cdc.o
 .text.usb_cdc_putc
                0x00000000       0x18 bin/obj/usb_cdc.o
 .text.usb_cdc_getc
                0x00000000       0x14 bin/obj/usb_cdc.o
 .text.usb_cdc_send
                0x00000000       0x58 bin/obj/usb_cdc.o
 .text.usb_cdc_recv
                0x00000000       0x18 bin/obj/usb_cdc.o
 .text.CDC_SetLineCoding
                0x00000000       0x28 bin/obj/usb_cdc.o
 .text.CDC_SendBreak
                0x00000000       0x18 bin/obj/usb_cdc.o
 .rodata        0x00000000       0x10 bin/obj/usb_cdc.o
 .text.CDC_BulkIn_Hdlr
                0x00000000       0x64 bin/obj/usb_cdc.o
 .text.CDC_BulkOut_Hdlr
                0x00000000       0x74 bin/obj/usb_cdc.o
 .text.usb_cdc_init
                0x00000000       0xe4 bin/obj/usb_cdc.o
 .text.usb_cdc_configured
                0x00000000       0x44 bin/obj/usb_cdc.o
 .debug_info    0x00000000     0x169f bin/obj/usb_cdc.o
 .debug_abbrev  0x00000000      0x24a bin/obj/usb_cdc.o
 .debug_aranges
                0x00000000       0x78 bin/obj/usb_cdc.o
 .debug_ranges  0x00000000       0x68 bin/obj/usb_cdc.o
 .debug_line    0x00000000      0x305 bin/obj/usb_cdc.o
 .debug_str     0x00000000     0x13a4 bin/obj/usb_cdc.o
 .comment       0x00000000       0x71 bin/obj/usb_cdc.o
 .debug_frame   0x00000000      0x188 bin/obj/usb_cdc.o
 .ARM.attributes
                0x00000000       0x32 bin/obj/usb_cdc.o
 .text          0x00000000        0x0 bin/obj/usb_clock.o
 .data          0x00000000        0x0 bin/obj/usb_clock.o
 .bss           0x00000000        0x0 bin/obj/usb_clock.o
 .text.Chip_Clock_EnablePeriphClock_USB
                0x00000000       0x30 bin/obj/usb_clock.o
 .text          0x00000000        0x0 bin/obj/descriptors.o
 .data          0x00000000        0x0 bin/obj/descriptors.o
 .bss           0x00000000        0x0 bin/obj/descriptors.o
 .text          0x00000000        0x0 bin/obj/main.o
 .data          0x00000000        0x0 bin/obj/main.o
 .bss           0x00000000        0x0 bin/obj/main.o
 .text.Board_Init
                0x00000000        0xc bin/obj/main.o
 .text.testUSBInit
                0x00000000        0xc bin/obj/main.o
 .text.testUSB  0x00000000        0x8 bin/obj/main.o
 .text          0x00000000        0x0 c:/program files (x86)/gnu tools arm embedded/4.9 2014q4/bin/../lib/gcc/arm-none-eabi/4.9.3/../../../../arm-none-eabi/lib/armv6-m\libc.a(lib_a-memcpy.o)
 .data          0x00000000        0x0 c:/program files (x86)/gnu tools arm embedded/4.9 2014q4/bin/../lib/gcc/arm-none-eabi/4.9.3/../../../../arm-none-eabi/lib/armv6-m\libc.a(lib_a-memcpy.o)
 .bss           0x00000000        0x0 c:/program files (x86)/gnu tools arm embedded/4.9 2014q4/bin/../lib/gcc/arm-none-eabi/4.9.3/../../../../arm-none-eabi/lib/armv6-m\libc.a(lib_a-memcpy.o)
 .text          0x00000000        0x0 c:/program files (x86)/gnu tools arm embedded/4.9 2014q4/bin/../lib/gcc/arm-none-eabi/4.9.3/../../../../arm-none-eabi/lib/armv6-m\libc.a(lib_a-memset.o)
 .data          0x00000000        0x0 c:/program files (x86)/gnu tools arm embedded/4.9 2014q4/bin/../lib/gcc/arm-none-eabi/4.9.3/../../../../arm-none-eabi/lib/armv6-m\libc.a(lib_a-memset.o)
 .bss           0x00000000        0x0 c:/program files (x86)/gnu tools arm embedded/4.9 2014q4/bin/../lib/gcc/arm-none-eabi/4.9.3/../../../../arm-none-eabi/lib/armv6-m\libc.a(lib_a-memset.o)
 .text          0x00000000        0x0 c:/program files (x86)/gnu tools arm embedded/4.9 2014q4/bin/../lib/gcc/arm-none-eabi/4.9.3/../../../../arm-none-eabi/lib/armv6-m\libc.a(lib_a-strlen.o)
 .data          0x00000000        0x0 c:/program files (x86)/gnu tools arm embedded/4.9 2014q4/bin/../lib/gcc/arm-none-eabi/4.9.3/../../../../arm-none-eabi/lib/armv6-m\libc.a(lib_a-strlen.o)
 .bss           0x00000000        0x0 c:/program files (x86)/gnu tools arm embedded/4.9 2014q4/bin/../lib/gcc/arm-none-eabi/4.9.3/../../../../arm-none-eabi/lib/armv6-m\libc.a(lib_a-strlen.o)
 .text.strlen   0x00000000       0x68 c:/program files (x86)/gnu tools arm embedded/4.9 2014q4/bin/../lib/gcc/arm-none-eabi/4.9.3/../../../../arm-none-eabi/lib/armv6-m\libc.a(lib_a-strlen.o)
 .debug_frame   0x00000000       0x28 c:/program files (x86)/gnu tools arm embedded/4.9 2014q4/bin/../lib/gcc/arm-none-eabi/4.9.3/../../../../arm-none-eabi/lib/armv6-m\libc.a(lib_a-strlen.o)
 .ARM.attributes
                0x00000000       0x2c c:/program files (x86)/gnu tools arm embedded/4.9 2014q4/bin/../lib/gcc/arm-none-eabi/4.9.3/../../../../arm-none-eabi/lib/armv6-m\libc.a(lib_a-strlen.o)

Memory Configuration

Name             Origin             Length             Attributes
irom             0x00000000         0x00040000         xr
isram            0x10000000         0x00008000         xrw
*default*        0x00000000         0xffffffff

Linker script and memory map

LOAD bin/obj/startup_lpc11u6x.o
LOAD bin/obj/lpc11u68_clock.o
LOAD bin/obj/gpio.o
LOAD bin/obj/iocon.o
LOAD bin/obj/delay.o
LOAD bin/obj/system.o
LOAD bin/obj/usbd.o
LOAD bin/obj/usb_cdc.o
LOAD bin/obj/usb_clock.o
LOAD bin/obj/descriptors.o
LOAD bin/obj/main.o
START GROUP
LOAD c:/program files (x86)/gnu tools arm embedded/4.9 2014q4/bin/../lib/gcc/arm-none-eabi/4.9.3/armv6-m\libgcc.a
LOAD c:/program files (x86)/gnu tools arm embedded/4.9 2014q4/bin/../lib/gcc/arm-none-eabi/4.9.3/../../../../arm-none-eabi/lib/armv6-m\libc.a
END GROUP
                0x00000000                . = ORIGIN (irom)

.text           0x00000000      0xe68
 *(isr_vector_table)
 isr_vector_table
                0x00000000       0xc0 bin/obj/startup_lpc11u6x.o
                0x00000000                Vectors
                0x000000c0                . = ALIGN (0x4)
                0x000000c0                __vec_end__ = .
 *(.after_vectors*)
 .after_vectors
                0x000000c0      0x188 bin/obj/startup_lpc11u6x.o
                0x000000c0                Reset_Handler
                0x000000e0                NMI_Handler
                0x000000ec                HardFault_Handler
                0x000000f8                SVC_Handler
                0x00000104                PendSV_Handler
                0x00000110                SysTick_Handler
                0x0000011c                FLEX_INT0_IRQHandler
                0x00000128                FLEX_INT1_IRQHandler
                0x00000134                FLEX_INT2_IRQHandler
                0x00000140                FLEX_INT3_IRQHandler
                0x0000014c                FLEX_INT4_IRQHandler
                0x00000158                FLEX_INT5_IRQHandler
                0x00000164                FLEX_INT6_IRQHandler
                0x00000170                FLEX_INT7_IRQHandler
                0x0000017c                GINT0_IRQHandler
                0x00000188                GINT1_IRQHandler
                0x00000194                SSP1_IRQHandler
                0x000001a0                I2C_IRQHandler
                0x000001ac                TIMER16_0_IRQHandler
                0x000001b8                TIMER16_1_IRQHandler
                0x000001c4                TIMER32_0_IRQHandler
                0x000001d0                TIMER32_1_IRQHandler
                0x000001dc                SSP0_IRQHandler
                0x000001e8                UART_IRQHandler
                0x00000200                USB_FIQHandler
                0x0000020c                ADC_IRQHandler
                0x00000218                WDT_IRQHandler
                0x00000224                BOD_IRQHandler
                0x00000230                FMC_IRQHandler
                0x0000023c                USBWakeup_IRQHandler
                0x00000248                . = ALIGN (0x4)
 *(.text*)
 .text.SystemCoreClockUpdate
                0x00000248       0x18 bin/obj/lpc11u68_clock.o
                0x00000248                SystemCoreClockUpdate
 .text.Chip_Clock_EnablePeriphClock
                0x00000260       0x30 bin/obj/lpc11u68_clock.o
                0x00000260                Chip_Clock_EnablePeriphClock
 .text.Chip_SetupXtalClocking
                0x00000290       0x60 bin/obj/lpc11u68_clock.o
                0x00000290                Chip_SetupXtalClocking
 .text.Chip_Clock_IsSystemPLLLocked
                0x000002f0       0x1c bin/obj/lpc11u68_clock.o
                0x000002f0                Chip_Clock_IsSystemPLLLocked
 .text.Chip_SYSCTL_PowerUp
                0x0000030c       0x44 bin/obj/lpc11u68_clock.o
                0x0000030c                Chip_SYSCTL_PowerUp
 .text.Chip_Clock_SetSystemPLLSource
                0x00000350       0x2c bin/obj/lpc11u68_clock.o
                0x00000350                Chip_Clock_SetSystemPLLSource
 .text.Chip_FMC_SetFLASHAccess
                0x0000037c       0x2c bin/obj/lpc11u68_clock.o
                0x0000037c                Chip_FMC_SetFLASHAccess
 .text.Chip_SYSCTL_PowerDown
                0x000003a8       0x40 bin/obj/lpc11u68_clock.o
                0x000003a8                Chip_SYSCTL_PowerDown
 .text.Chip_Clock_SetupSystemPLL
                0x000003e8       0x34 bin/obj/lpc11u68_clock.o
                0x000003e8                Chip_Clock_SetupSystemPLL
 .text.Chip_Clock_SetSysClockDiv
                0x0000041c       0x18 bin/obj/lpc11u68_clock.o
                0x0000041c                Chip_Clock_SetSysClockDiv
 .text.Chip_Clock_SetMainClockSource
                0x00000434       0x2c bin/obj/lpc11u68_clock.o
                0x00000434                Chip_Clock_SetMainClockSource
 .text.gpioInit
                0x00000460       0x30 bin/obj/gpio.o
                0x00000460                gpioInit
 .text.Chip_IOCON_SetPinMuxing
                0x00000490       0x54 bin/obj/iocon.o
                0x00000490                Chip_IOCON_SetPinMuxing
 .text.Chip_IOCON_PinMuxSet
                0x000004e4       0x8c bin/obj/iocon.o
                0x000004e4                Chip_IOCON_PinMuxSet
 .text.delayInit
                0x00000570       0x24 bin/obj/delay.o
                0x00000570                delayInit
 .text.delaySetRelod
                0x00000594       0x18 bin/obj/delay.o
                0x00000594                delaySetRelod
 .text.enableUSBClock
                0x000005ac       0x48 bin/obj/usb_clock.o
                0x000005ac                enableUSBClock
 .text.Chip_Clock_SetUSBPLLSource
                0x000005f4       0x2c bin/obj/usb_clock.o
                0x000005f4                Chip_Clock_SetUSBPLLSource
 .text.Chip_Clock_SetupUSBPLL
                0x00000620       0x34 bin/obj/usb_clock.o
                0x00000620                Chip_Clock_SetupUSBPLL
 .text.Chip_SYSCTL_PowerUp_USB
                0x00000654       0x44 bin/obj/usb_clock.o
                0x00000654                Chip_SYSCTL_PowerUp_USB
 .text.Chip_Clock_IsUSBPLLLocked
                0x00000698       0x1c bin/obj/usb_clock.o
                0x00000698                Chip_Clock_IsUSBPLLLocked
 .text.Chip_Clock_SetUSBClockSource
                0x000006b4       0x3c bin/obj/usb_clock.o
                0x000006b4                Chip_Clock_SetUSBClockSource
 .text.NVIC_EnableIRQ
                0x000006f0       0x2c bin/obj/main.o
                0x000006f0                NVIC_EnableIRQ
 .text.NVIC_DisableIRQ
                0x0000071c       0x30 bin/obj/main.o
                0x0000071c                NVIC_DisableIRQ
 .text.main     0x0000074c      0x14c bin/obj/main.o
                0x0000074c                main
 .text.vcom_init
                0x00000898      0x12c bin/obj/main.o
                0x00000898                vcom_init
 .text.VCOM_SetLineCode
                0x000009c4       0x24 bin/obj/main.o
                0x000009c4                VCOM_SetLineCode
 .text.VCOM_bulk_in_hdlr
                0x000009e8       0x30 bin/obj/main.o
                0x000009e8                VCOM_bulk_in_hdlr
 .text.VCOM_bulk_out_hdlr
                0x00000a18       0xf0 bin/obj/main.o
                0x00000a18                VCOM_bulk_out_hdlr
 .text.vcom_connected
                0x00000b08       0x1c bin/obj/main.o
                0x00000b08                vcom_connected
 .text.vcom_write
                0x00000b24       0x7c bin/obj/main.o
                0x00000b24                vcom_write
 .text.vcom_bread
                0x00000ba0       0xa4 bin/obj/main.o
                0x00000ba0                vcom_bread
 .text.SystemInit
                0x00000c44       0x38 bin/obj/main.o
                0x00000c44                SystemInit
 .text.Board_SetupMuxing
                0x00000c7c       0x24 bin/obj/main.o
                0x00000c7c                Board_SetupMuxing
 .text.Board_SetupClocking
                0x00000ca0        0xc bin/obj/main.o
                0x00000ca0                Board_SetupClocking
 .text.USB_IRQHandler
                0x00000cac       0x5c bin/obj/main.o
                0x00000cac                USB_IRQHandler
 .text.find_IntfDesc
                0x00000d08       0x58 bin/obj/main.o
                0x00000d08                find_IntfDesc
 .text.memcpy   0x00000d60       0x7c c:/program files (x86)/gnu tools arm embedded/4.9 2014q4/bin/../lib/gcc/arm-none-eabi/4.9.3/../../../../arm-none-eabi/lib/armv6-m\libc.a(lib_a-memcpy.o)
                0x00000d60                memcpy
 .text.memset   0x00000ddc       0x8c c:/program files (x86)/gnu tools arm embedded/4.9 2014q4/bin/../lib/gcc/arm-none-eabi/4.9.3/../../../../arm-none-eabi/lib/armv6-m\libc.a(lib_a-memset.o)
                0x00000ddc                memset
                0x00000e68                . = ALIGN (0x4)
                0x00000e68                __end_text__ = .
                0x00000e68                __end = .
                0x00000e68                PROVIDE (etext, __end_text__)
                0x00000e68                PROVIDE (end, .)
OUTPUT(bin/firmware.elf elf32-littlearm)

.rodata.USB_DeviceDescriptor
                0x00000e68       0x14
 .rodata.USB_DeviceDescriptor
                0x00000e68       0x14 bin/obj/descriptors.o
                0x00000e68                USB_DeviceDescriptor

.rodata.USB_FsConfigDescriptor
                0x00000e7c       0x50
 .rodata.USB_FsConfigDescriptor
                0x00000e7c       0x50 bin/obj/descriptors.o
                0x00000e7c                USB_FsConfigDescriptor

.rodata.pinmuxing
                0x00000ecc       0x64
 .rodata.pinmuxing
                0x00000ecc       0x64 bin/obj/main.o

.rodata         0x00000f30       0x10
 .rodata        0x00000f30       0x10 bin/obj/main.o

.glue_7         0x00000f40        0x0
 .glue_7        0x00000000        0x0 linker stubs

.glue_7t        0x00000f40        0x0
 .glue_7t       0x00000000        0x0 linker stubs

.vfp11_veneer   0x00000f40        0x0
 .vfp11_veneer  0x00000000        0x0 linker stubs

.v4_bx          0x00000f40        0x0
 .v4_bx         0x00000000        0x0 linker stubs

.iplt           0x00000f40        0x0
 .iplt          0x00000000        0x0 bin/obj/startup_lpc11u6x.o

.igot.plt       0x00000f40        0x0
 .igot.plt      0x00000000        0x0 bin/obj/startup_lpc11u6x.o

.data.USB_StringDescriptor
                0x00000f40       0x34
 .data.USB_StringDescriptor
                0x00000f40       0x34 bin/obj/descriptors.o
                0x00000f40                USB_StringDescriptor

.rel.dyn        0x00000f74        0x0
 .rel.iplt      0x00000000        0x0 bin/obj/startup_lpc11u6x.o

.debug_info     0x00000000     0x7307
 .debug_info    0x00000000      0x74b bin/obj/startup_lpc11u6x.o
 .debug_info    0x0000074b      0x85d bin/obj/lpc11u68_clock.o
 .debug_info    0x00000fa8      0x986 bin/obj/gpio.o
 .debug_info    0x0000192e      0x281 bin/obj/iocon.o
 .debug_info    0x00001baf      0x1c1 bin/obj/delay.o
 .debug_info    0x00001d70     0x232f bin/obj/usbd.o
 .debug_info    0x0000409f      0x6ec bin/obj/usb_clock.o
 .debug_info    0x0000478b      0x61e bin/obj/descriptors.o
 .debug_info    0x00004da9     0x255e bin/obj/main.o

.debug_abbrev   0x00000000      0xdd3
 .debug_abbrev  0x00000000      0x119 bin/obj/startup_lpc11u6x.o
 .debug_abbrev  0x00000119      0x183 bin/obj/lpc11u68_clock.o
 .debug_abbrev  0x0000029c      0x178 bin/obj/gpio.o
 .debug_abbrev  0x00000414      0x123 bin/obj/iocon.o
 .debug_abbrev  0x00000537      0x122 bin/obj/delay.o
 .debug_abbrev  0x00000659      0x232 bin/obj/usbd.o
 .debug_abbrev  0x0000088b      0x129 bin/obj/usb_clock.o
 .debug_abbrev  0x000009b4       0xc4 bin/obj/descriptors.o
 .debug_abbrev  0x00000a78      0x35b bin/obj/main.o

.debug_aranges  0x00000000      0x3f8
 .debug_aranges
                0x00000000      0x110 bin/obj/startup_lpc11u6x.o
 .debug_aranges
                0x00000110       0x70 bin/obj/lpc11u68_clock.o
 .debug_aranges
                0x00000180       0xa0 bin/obj/gpio.o
 .debug_aranges
                0x00000220       0x28 bin/obj/iocon.o
 .debug_aranges
                0x00000248       0x68 bin/obj/delay.o
 .debug_aranges
                0x000002b0       0x38 bin/obj/usbd.o
 .debug_aranges
                0x000002e8       0x50 bin/obj/usb_clock.o
 .debug_aranges
                0x00000338       0x18 bin/obj/descriptors.o
 .debug_aranges
                0x00000350       0xa8 bin/obj/main.o

.debug_ranges   0x00000000      0x360
 .debug_ranges  0x00000000      0x100 bin/obj/startup_lpc11u6x.o
 .debug_ranges  0x00000100       0x60 bin/obj/lpc11u68_clock.o
 .debug_ranges  0x00000160       0x90 bin/obj/gpio.o
 .debug_ranges  0x000001f0       0x18 bin/obj/iocon.o
 .debug_ranges  0x00000208       0x58 bin/obj/delay.o
 .debug_ranges  0x00000260       0x28 bin/obj/usbd.o
 .debug_ranges  0x00000288       0x40 bin/obj/usb_clock.o
 .debug_ranges  0x000002c8       0x98 bin/obj/main.o

.debug_line     0x00000000     0x1050
 .debug_line    0x00000000      0x1c0 bin/obj/startup_lpc11u6x.o
 .debug_line    0x000001c0      0x1aa bin/obj/lpc11u68_clock.o
 .debug_line    0x0000036a      0x17f bin/obj/gpio.o
 .debug_line    0x000004e9       0xea bin/obj/iocon.o
 .debug_line    0x000005d3      0x108 bin/obj/delay.o
 .debug_line    0x000006db      0x2b6 bin/obj/usbd.o
 .debug_line    0x00000991      0x16f bin/obj/usb_clock.o
 .debug_line    0x00000b00      0x13f bin/obj/descriptors.o
 .debug_line    0x00000c3f      0x411 bin/obj/main.o

.debug_str      0x00000000     0x2d29
 .debug_str     0x00000000      0x5f1 bin/obj/startup_lpc11u6x.o
                                0x64c (size before relaxing)
 .debug_str     0x000005f1      0x5bf bin/obj/lpc11u68_clock.o
                                0x9a0 (size before relaxing)
 .debug_str     0x00000bb0       0xf4 bin/obj/gpio.o
                                0x486 (size before relaxing)
 .debug_str     0x00000ca4       0x97 bin/obj/iocon.o
                                0x23d (size before relaxing)
 .debug_str     0x00000d3b       0xf2 bin/obj/delay.o
                                0x217 (size before relaxing)
 .debug_str     0x00000e2d     0x16f3 bin/obj/usbd.o
                               0x1ce6 (size before relaxing)
 .debug_str     0x00002520      0x1e7 bin/obj/usb_clock.o
                                0x8a7 (size before relaxing)
 .debug_str     0x00002707       0xa2 bin/obj/descriptors.o
                                0x7b1 (size before relaxing)
 .debug_str     0x000027a9      0x580 bin/obj/main.o
                               0x212a (size before relaxing)

.comment        0x00000000       0x70
 .comment       0x00000000       0x70 bin/obj/startup_lpc11u6x.o
                                 0x71 (size before relaxing)
 .comment       0x00000000       0x71 bin/obj/lpc11u68_clock.o
 .comment       0x00000000       0x71 bin/obj/gpio.o
 .comment       0x00000000       0x71 bin/obj/iocon.o
 .comment       0x00000000       0x71 bin/obj/delay.o
 .comment       0x00000000       0x71 bin/obj/usbd.o
 .comment       0x00000000       0x71 bin/obj/usb_clock.o
 .comment       0x00000000       0x71 bin/obj/descriptors.o
 .comment       0x00000000       0x71 bin/obj/main.o

.ARM.attributes
                0x00000000       0x32
 .ARM.attributes
                0x00000000       0x32 bin/obj/startup_lpc11u6x.o
 .ARM.attributes
                0x00000032       0x32 bin/obj/lpc11u68_clock.o
 .ARM.attributes
                0x00000064       0x32 bin/obj/gpio.o
 .ARM.attributes
                0x00000096       0x32 bin/obj/iocon.o
 .ARM.attributes
                0x000000c8       0x32 bin/obj/delay.o
 .ARM.attributes
                0x000000fa       0x32 bin/obj/usbd.o
 .ARM.attributes
                0x0000012c       0x32 bin/obj/usb_clock.o
 .ARM.attributes
                0x0000015e       0x32 bin/obj/descriptors.o
 .ARM.attributes
                0x00000190       0x32 bin/obj/main.o
 .ARM.attributes
                0x000001c2       0x2c c:/program files (x86)/gnu tools arm embedded/4.9 2014q4/bin/../lib/gcc/arm-none-eabi/4.9.3/../../../../arm-none-eabi/lib/armv6-m\libc.a(lib_a-memcpy.o)
 .ARM.attributes
                0x000001ee       0x2c c:/program files (x86)/gnu tools arm embedded/4.9 2014q4/bin/../lib/gcc/arm-none-eabi/4.9.3/../../../../arm-none-eabi/lib/armv6-m\libc.a(lib_a-memset.o)

.debug_frame    0x00000000      0xc94
 .debug_frame   0x00000000      0x374 bin/obj/startup_lpc11u6x.o
 .debug_frame   0x00000374      0x168 bin/obj/lpc11u68_clock.o
 .debug_frame   0x000004dc      0x22c bin/obj/gpio.o
 .debug_frame   0x00000708       0x54 bin/obj/iocon.o
 .debug_frame   0x0000075c      0x134 bin/obj/delay.o
 .debug_frame   0x00000890       0x90 bin/obj/usbd.o
 .debug_frame   0x00000920       0xe8 bin/obj/usb_clock.o
 .debug_frame   0x00000a08      0x234 bin/obj/main.o
 .debug_frame   0x00000c3c       0x2c c:/program files (x86)/gnu tools arm embedded/4.9 2014q4/bin/../lib/gcc/arm-none-eabi/4.9.3/../../../../arm-none-eabi/lib/armv6-m\libc.a(lib_a-memcpy.o)
 .debug_frame   0x00000c68       0x2c c:/program files (x86)/gnu tools arm embedded/4.9 2014q4/bin/../lib/gcc/arm-none-eabi/4.9.3/../../../../arm-none-eabi/lib/armv6-m\libc.a(lib_a-memset.o)

.bss            0x10000000       0x20
 COMMON         0x10000000        0x4 bin/obj/lpc11u68_clock.o
                0x10000000                SystemCoreClock
 COMMON         0x10000004        0x4 bin/obj/usbd.o
                0x10000004                g_hUsb
 COMMON         0x10000008       0x18 bin/obj/main.o
                0x10000008                g_vCOM
                0x1000001c                g_pUsbApi

.bss.g_rxBuff   0x10000020      0x100
 .bss.g_rxBuff  0x10000020      0x100 bin/obj/main.o
